target datalayout = "e-m:e-p270:32:32-p271:32:32-p272:64:64-i64:64-i128:128-f80:128-n8:16:32:64-S128"
target triple = "x86_64-pc-linux-gnu"

%struct.nghttp2_map = type { ptr, ptr, i64, i64 }
%struct.nghttp2_map_bucket = type { i32, i32, ptr }

@stderr = external global ptr, align 8
@.str = private unnamed_addr constant [14 x i8] c"@%zu <EMPTY>\0A\00", align 1
@.str.1 = private unnamed_addr constant [43 x i8] c"@%zu hash=%zu key=%d base=%zu distance=%u\0A\00", align 1

; Function Attrs: nounwind uwtable
define internal i64 @hash(i32 noundef %0, i64 noundef %1) #0 {
  %3 = alloca i32, align 4
  %4 = alloca i64, align 8
  store i32 %0, ptr %3, align 4, !tbaa !21
  store i64 %1, ptr %4, align 8, !tbaa !16
  %5 = load i32, ptr %3, align 4, !tbaa !21
  %6 = mul i32 %5, -1640531527
  %7 = load i64, ptr %4, align 8, !tbaa !16
  %8 = sub i64 32, %7
  %9 = trunc i64 %8 to i32
  %10 = lshr i32 %6, %9
  %11 = zext i32 %10 to i64
  ret i64 %11
}

; Function Attrs: nounwind uwtable
define hidden void @nghttp2_map_print_distance(ptr noundef %0) #0 {
  %2 = alloca ptr, align 8
  %3 = alloca i64, align 8
  %4 = alloca i64, align 8
  %5 = alloca ptr, align 8
  %6 = alloca i64, align 8
  %7 = alloca i32, align 4
  store ptr %0, ptr %2, align 8, !tbaa !3
  call void @llvm.lifetime.start.p0(i64 8, ptr %3) #7
  call void @llvm.lifetime.start.p0(i64 8, ptr %4) #7
  call void @llvm.lifetime.start.p0(i64 8, ptr %5) #7
  call void @llvm.lifetime.start.p0(i64 8, ptr %6) #7
  %8 = load ptr, ptr %2, align 8, !tbaa !3
  %9 = getelementptr inbounds nuw %struct.nghttp2_map, ptr %8, i32 0, i32 2
  %10 = load i64, ptr %9, align 8, !tbaa !15
  %11 = icmp eq i64 %10, 0
  br i1 %11, label %12, label %13

12:                                               ; preds = %1
  store i32 1, ptr %7, align 4
  br label %67

13:                                               ; preds = %1
  %14 = load ptr, ptr %2, align 8, !tbaa !3
  %15 = getelementptr inbounds nuw %struct.nghttp2_map, ptr %14, i32 0, i32 3
  %16 = load i64, ptr %15, align 8, !tbaa !13
  %17 = trunc i64 %16 to i32
  %18 = shl i32 1, %17
  %19 = zext i32 %18 to i64
  store i64 %19, ptr %6, align 8, !tbaa !16
  store i64 0, ptr %3, align 8, !tbaa !16
  br label %20

20:                                               ; preds = %63, %13
  %21 = load i64, ptr %3, align 8, !tbaa !16
  %22 = load i64, ptr %6, align 8, !tbaa !16
  %23 = icmp ult i64 %21, %22
  br i1 %23, label %24, label %66

24:                                               ; preds = %20
  %25 = load ptr, ptr %2, align 8, !tbaa !3
  %26 = getelementptr inbounds nuw %struct.nghttp2_map, ptr %25, i32 0, i32 0
  %27 = load ptr, ptr %26, align 8, !tbaa !14
  %28 = load i64, ptr %3, align 8, !tbaa !16
  %29 = getelementptr inbounds nuw %struct.nghttp2_map_bucket, ptr %27, i64 %28
  store ptr %29, ptr %5, align 8, !tbaa !17
  %30 = load ptr, ptr %5, align 8, !tbaa !17
  %31 = getelementptr inbounds nuw %struct.nghttp2_map_bucket, ptr %30, i32 0, i32 2
  %32 = load ptr, ptr %31, align 8, !tbaa !18
  %33 = icmp eq ptr %32, null
  br i1 %33, label %34, label %38

34:                                               ; preds = %24
  %35 = load ptr, ptr @stderr, align 8, !tbaa !24
  %36 = load i64, ptr %3, align 8, !tbaa !16
  %37 = call i32 (ptr, ptr, ...) @fprintf(ptr noundef %35, ptr noundef @.str, i64 noundef %36) #7
  br label %63

38:                                               ; preds = %24
  %39 = load ptr, ptr %5, align 8, !tbaa !17
  %40 = getelementptr inbounds nuw %struct.nghttp2_map_bucket, ptr %39, i32 0, i32 1
  %41 = load i32, ptr %40, align 4, !tbaa !26
  %42 = load ptr, ptr %2, align 8, !tbaa !3
  %43 = getelementptr inbounds nuw %struct.nghttp2_map, ptr %42, i32 0, i32 3
  %44 = load i64, ptr %43, align 8, !tbaa !13
  %45 = call i64 @hash(i32 noundef %41, i64 noundef %44)
  store i64 %45, ptr %4, align 8, !tbaa !16
  %46 = load ptr, ptr @stderr, align 8, !tbaa !24
  %47 = load i64, ptr %3, align 8, !tbaa !16
  %48 = load ptr, ptr %5, align 8, !tbaa !17
  %49 = getelementptr inbounds nuw %struct.nghttp2_map_bucket, ptr %48, i32 0, i32 1
  %50 = load i32, ptr %49, align 4, !tbaa !26
  %51 = load ptr, ptr %2, align 8, !tbaa !3
  %52 = getelementptr inbounds nuw %struct.nghttp2_map, ptr %51, i32 0, i32 3
  %53 = load i64, ptr %52, align 8, !tbaa !13
  %54 = call i64 @hash(i32 noundef %50, i64 noundef %53)
  %55 = load ptr, ptr %5, align 8, !tbaa !17
  %56 = getelementptr inbounds nuw %struct.nghttp2_map_bucket, ptr %55, i32 0, i32 1
  %57 = load i32, ptr %56, align 4, !tbaa !26
  %58 = load i64, ptr %4, align 8, !tbaa !16
  %59 = load ptr, ptr %5, align 8, !tbaa !17
  %60 = getelementptr inbounds nuw %struct.nghttp2_map_bucket, ptr %59, i32 0, i32 0
  %61 = load i32, ptr %60, align 8, !tbaa !27
  %62 = call i32 (ptr, ptr, ...) @fprintf(ptr noundef %46, ptr noundef @.str.1, i64 noundef %47, i64 noundef %54, i32 noundef %57, i64 noundef %58, i32 noundef %61) #7
  br label %63

63:                                               ; preds = %38, %34
  %64 = load i64, ptr %3, align 8, !tbaa !16
  %65 = add i64 %64, 1
  store i64 %65, ptr %3, align 8, !tbaa !16
  br label %20, !llvm.loop !28

66:                                               ; preds = %20
  store i32 0, ptr %7, align 4
  br label %67

67:                                               ; preds = %66, %12
  call void @llvm.lifetime.end.p0(i64 8, ptr %6) #7
  call void @llvm.lifetime.end.p0(i64 8, ptr %5) #7
  call void @llvm.lifetime.end.p0(i64 8, ptr %4) #7
  call void @llvm.lifetime.end.p0(i64 8, ptr %3) #7
  %68 = load i32, ptr %7, align 4
  switch i32 %68, label %70 [
    i32 0, label %69
    i32 1, label %69
  ]

69:                                               ; preds = %67, %67
  ret void

70:                                               ; preds = %67
  unreachable
}