; Function Attrs: nofree nounwind uwtable
define hidden void @nghttp2_map_print_distance(ptr noundef readonly captures(none) %0) local_unnamed_addr #3 {
  %2 = getelementptr inbounds nuw i8, ptr %0, i64 16
  %3 = load i64, ptr %2, align 8, !tbaa !11
  %4 = icmp eq i64 %3, 0
  br i1 %4, label %.loopexit, label %5

5:                                                ; preds = %1
  %6 = getelementptr inbounds nuw i8, ptr %0, i64 24
  %7 = load i64, ptr %6, align 8, !tbaa !12
  %8 = trunc i64 %7 to i32
  %9 = shl nuw i32 1, %8
  %10 = zext i32 %9 to i64
  br label %11

11:                                               ; preds = %5, %32
  %.016 = phi i64 [ 0, %5 ], [ %33, %32 ]
  %12 = load ptr, ptr %0, align 8, !tbaa !10
  %13 = getelementptr inbounds nuw %struct.nghttp2_map_bucket, ptr %12, i64 %.016
  %14 = getelementptr inbounds nuw i8, ptr %13, i64 8
  %15 = load ptr, ptr %14, align 8, !tbaa !13
  %16 = icmp eq ptr %15, null
  br i1 %16, label %17, label %20

17:                                               ; preds = %11
  %18 = load ptr, ptr @stderr, align 8, !tbaa !18
  %19 = tail call i32 (ptr, ptr, ...) @fprintf(ptr noundef %18, ptr noundef nonnull @.str, i64 noundef %.016) #13
  br label %32

20:                                               ; preds = %11
  %21 = getelementptr inbounds nuw i8, ptr %13, i64 4
  %22 = load i32, ptr %21, align 4, !tbaa !20
  %23 = load i64, ptr %6, align 8, !tbaa !12
  %24 = mul i32 %22, -1640531527
  %25 = trunc i64 %23 to i32
  %26 = sub i32 32, %25
  %27 = lshr i32 %24, %26
  %28 = zext i32 %27 to i64
  %29 = load ptr, ptr @stderr, align 8, !tbaa !18
  %30 = load i32, ptr %13, align 8, !tbaa !21
  %31 = tail call i32 (ptr, ptr, ...) @fprintf(ptr noundef %29, ptr noundef nonnull @.str.1, i64 noundef %.016, i64 noundef %28, i32 noundef %22, i64 noundef %28, i32 noundef %30) #13
  br label %32

32:                                               ; preds = %20, %17
  %33 = add nuw nsw i64 %.016, 1
  %exitcond.not = icmp eq i64 %33, %10
  br i1 %exitcond.not, label %.loopexit, label %11, !llvm.loop !22

.loopexit:                                        ; preds = %32, %1
  ret void
}